; Function Attrs: mustprogress uwtable
define noundef zeroext i1 @_ZNK6json114JsoneqERKS0_(ptr nocapture noundef nonnull readonly align 8 dereferenceable(16) %0, ptr nocapture noundef nonnull readonly align 8 dereferenceable(16) %1) local_unnamed_addr #0 align 2 {
  %3 = load ptr, ptr %0, align 8
  %4 = load ptr, ptr %1, align 8
  %5 = icmp eq ptr %3, %4
  br i1 %5, label %21, label %6

6:                                                ; preds = %2
  %7 = load ptr, ptr %3, align 8
  %8 = load ptr, ptr %7, align 8
  %9 = tail call noundef i32 %8(ptr noundef nonnull align 8 dereferenceable(8) %3)
  %10 = load ptr, ptr %1, align 8
  %11 = load ptr, ptr %10, align 8
  %12 = load ptr, ptr %11, align 8
  %13 = tail call noundef i32 %12(ptr noundef nonnull align 8 dereferenceable(8) %10)
  %.not = icmp eq i32 %9, %13
  br i1 %.not, label %14, label %21

14:                                               ; preds = %6
  %15 = load ptr, ptr %0, align 8
  %16 = load ptr, ptr %1, align 8
  %17 = load ptr, ptr %15, align 8
  %18 = getelementptr inbounds i8, ptr %17, i64 8
  %19 = load ptr, ptr %18, align 8
  %20 = tail call noundef zeroext i1 %19(ptr noundef nonnull align 8 dereferenceable(8) %15, ptr noundef %16)
  br label %21

21:                                               ; preds = %6, %2, %14
  %.0 = phi i1 [ %20, %14 ], [ true, %2 ], [ false, %6 ]
  ret i1 %.0
}